; Function Attrs: mustprogress nounwind uwtable
define internal fastcc void @_ZN4lean7rb_treeISt4pairINS_12_GLOBAL__N_19cache_keyENS_4exprEENS_6rb_mapIS3_S4_NS2_13cache_key_cmpEE9entry_cmpEE4nodeD2Ev(ptr noundef nonnull readonly align 8 captures(none) dereferenceable(8) %0) unnamed_addr #4 align 2 personality ptr @__gxx_personality_v0 {
  %2 = load ptr, ptr %0, align 8, !tbaa !15
  %.not = icmp eq ptr %2, null
  br i1 %.not, label %common.ret1, label %3

3:                                                ; preds = %1
  %4 = getelementptr inbounds nuw i8, ptr %2, i64 44
  %5 = atomicrmw sub ptr %4, i32 1 acq_rel, align 4
  %6 = icmp eq i32 %5, 1
  br i1 %6, label %7, label %common.ret1

7:                                                ; preds = %3
  %8 = getelementptr inbounds nuw i8, ptr %2, i64 16
  %9 = getelementptr inbounds nuw i8, ptr %2, i64 32
  %10 = load ptr, ptr %9, align 8, !tbaa !3
  %11 = ptrtoint ptr %10 to i64
  %12 = and i64 %11, 1
  %.not.i.i.i = icmp eq i64 %12, 0
  br i1 %.not.i.i.i, label %13, label %_ZN4lean10object_refD2Ev.exit.i

13:                                               ; preds = %7
  %14 = load i32, ptr %10, align 4, !tbaa !8
  %15 = icmp sgt i32 %14, 1
  br i1 %15, label %16, label %18, !prof !11

16:                                               ; preds = %13
  %17 = add nsw i32 %14, -1
  store i32 %17, ptr %10, align 4, !tbaa !8
  br label %_ZN4lean10object_refD2Ev.exit.i

18:                                               ; preds = %13
  %.not.i.i.i.i = icmp eq i32 %14, 0
  br i1 %.not.i.i.i.i, label %_ZN4lean10object_refD2Ev.exit.i, label %19

19:                                               ; preds = %18
  invoke void @lean_dec_ref_cold(ptr noundef nonnull %10)
          to label %_ZN4lean10object_refD2Ev.exit.i unwind label %20

20:                                               ; preds = %19
  %21 = landingpad { ptr, i32 }
          catch ptr null
  %22 = extractvalue { ptr, i32 } %21, 0
  tail call void @__clang_call_terminate(ptr %22) #18
  unreachable

_ZN4lean10object_refD2Ev.exit.i:                  ; preds = %19, %18, %16, %7
  %.val.i = load ptr, ptr %8, align 8, !tbaa !3
  %23 = ptrtoint ptr %.val.i to i64
  %24 = and i64 %23, 1
  %.not.i.i.i1.i = icmp eq i64 %24, 0
  br i1 %.not.i.i.i1.i, label %25, label %_ZNSt4pairIN4lean12_GLOBAL__N_19cache_keyENS0_4exprEED2Ev.exit

25:                                               ; preds = %_ZN4lean10object_refD2Ev.exit.i
  %26 = load i32, ptr %.val.i, align 4, !tbaa !8
  %27 = icmp sgt i32 %26, 1
  br i1 %27, label %28, label %30, !prof !11

28:                                               ; preds = %25
  %29 = add nsw i32 %26, -1
  store i32 %29, ptr %.val.i, align 4, !tbaa !8
  br label %_ZNSt4pairIN4lean12_GLOBAL__N_19cache_keyENS0_4exprEED2Ev.exit

30:                                               ; preds = %25
  %.not.i.i.i.i.i = icmp eq i32 %26, 0
  br i1 %.not.i.i.i.i.i, label %_ZNSt4pairIN4lean12_GLOBAL__N_19cache_keyENS0_4exprEED2Ev.exit, label %31

31:                                               ; preds = %30
  invoke void @lean_dec_ref_cold(ptr noundef nonnull %.val.i)
          to label %_ZNSt4pairIN4lean12_GLOBAL__N_19cache_keyENS0_4exprEED2Ev.exit unwind label %32

32:                                               ; preds = %31
  %33 = landingpad { ptr, i32 }
          catch ptr null
  %34 = extractvalue { ptr, i32 } %33, 0
  tail call void @__clang_call_terminate(ptr %34) #18
  unreachable

common.ret1:                                      ; preds = %3, %1, %_ZNSt4pairIN4lean12_GLOBAL__N_19cache_keyENS0_4exprEED2Ev.exit
  ret void

_ZNSt4pairIN4lean12_GLOBAL__N_19cache_keyENS0_4exprEED2Ev.exit: ; preds = %_ZN4lean10object_refD2Ev.exit.i, %28, %30, %31
  %35 = getelementptr inbounds nuw i8, ptr %2, i64 8
  tail call fastcc void @_ZN4lean7rb_treeISt4pairINS_12_GLOBAL__N_19cache_keyENS_4exprEENS_6rb_mapIS3_S4_NS2_13cache_key_cmpEE9entry_cmpEE4nodeD2Ev(ptr noundef nonnull align 8 dereferenceable(8) %35) #17
  tail call fastcc void @_ZN4lean7rb_treeISt4pairINS_12_GLOBAL__N_19cache_keyENS_4exprEENS_6rb_mapIS3_S4_NS2_13cache_key_cmpEE9entry_cmpEE4nodeD2Ev(ptr noundef nonnull align 8 dereferenceable(48) %2) #17
  tail call void @_ZdlPvm(ptr noundef nonnull align 8 dereferenceable(48) %2, i64 noundef 48) #19
  br label %common.ret1
}